target datalayout = "e-m:e-p270:32:32-p271:32:32-p272:64:64-i64:64-i128:128-f80:128-n8:16:32:64-S128"
target triple = "x86_64-pc-linux-gnu"

%struct.wtap_opttype_t = type { ptr, ptr, i32, i32 }
%struct.wtap_block = type { ptr, ptr, ptr, i32 }
%struct.wtap_blocktype_t = type { i32, ptr, ptr, ptr, ptr, ptr, ptr }
%struct._GArray = type { ptr, i32 }
%struct.wtap_option_t = type { i32, %union.wtap_optval_t }
%union.wtap_optval_t = type { %struct.custom_opt_s }
%struct.custom_opt_s = type { i32, %union.anon.0 }
%union.anon.0 = type { %struct.nflx_custom_opt_data }
%struct.nflx_custom_opt_data = type { i32, i64, ptr, i8 }

; Function Attrs: null_pointer_is_valid sspstrong uwtable
define i32 @wtap_block_remove_option(ptr noundef %0, i32 noundef %1) #0 {
  %3 = alloca i32, align 4
  %4 = alloca ptr, align 8
  %5 = alloca i32, align 4
  %6 = alloca ptr, align 8
  %7 = alloca i32, align 4
  %8 = alloca ptr, align 8
  %9 = alloca i32, align 4
  store ptr %0, ptr %4, align 8
  store i32 %1, ptr %5, align 4
  call void @llvm.lifetime.start.p0(i64 8, ptr %6) #15
  call void @llvm.lifetime.start.p0(i64 4, ptr %7) #15
  call void @llvm.lifetime.start.p0(i64 8, ptr %8) #15
  %10 = load ptr, ptr %4, align 8
  %11 = icmp eq ptr %10, null
  br i1 %11, label %12, label %13

12:                                               ; preds = %2
  store i32 -6, ptr %3, align 4
  store i32 1, ptr %9, align 4
  br label %69

13:                                               ; preds = %2
  %14 = load ptr, ptr %4, align 8
  %15 = getelementptr inbounds nuw %struct.wtap_block, ptr %14, i32 0, i32 0
  %16 = load ptr, ptr %15, align 8
  %17 = getelementptr inbounds nuw %struct.wtap_blocktype_t, ptr %16, i32 0, i32 6
  %18 = load ptr, ptr %17, align 8
  %19 = load i32, ptr %5, align 4
  %20 = zext i32 %19 to i64
  %21 = inttoptr i64 %20 to ptr
  %22 = call ptr @g_hash_table_lookup(ptr noundef %18, ptr noundef %21)
  store ptr %22, ptr %6, align 8
  %23 = load ptr, ptr %6, align 8
  %24 = icmp eq ptr %23, null
  br i1 %24, label %25, label %26

25:                                               ; preds = %13
  store i32 -1, ptr %3, align 4
  store i32 1, ptr %9, align 4
  br label %69

26:                                               ; preds = %13
  %27 = load ptr, ptr %6, align 8
  %28 = getelementptr inbounds nuw %struct.wtap_opttype_t, ptr %27, i32 0, i32 3
  %29 = load i32, ptr %28, align 4
  %30 = and i32 %29, 1
  %31 = icmp ne i32 %30, 0
  br i1 %31, label %32, label %33

32:                                               ; preds = %26
  store i32 -4, ptr %3, align 4
  store i32 1, ptr %9, align 4
  br label %69

33:                                               ; preds = %26
  store i32 0, ptr %7, align 4
  br label %34

34:                                               ; preds = %65, %33
  %35 = load i32, ptr %7, align 4
  %36 = load ptr, ptr %4, align 8
  %37 = getelementptr inbounds nuw %struct.wtap_block, ptr %36, i32 0, i32 2
  %38 = load ptr, ptr %37, align 8
  %39 = getelementptr inbounds nuw %struct._GArray, ptr %38, i32 0, i32 1
  %40 = load i32, ptr %39, align 8
  %41 = icmp ult i32 %35, %40
  br i1 %41, label %42, label %68

42:                                               ; preds = %34
  %43 = load ptr, ptr %4, align 8
  %44 = getelementptr inbounds nuw %struct.wtap_block, ptr %43, i32 0, i32 2
  %45 = load ptr, ptr %44, align 8
  %46 = getelementptr inbounds nuw %struct._GArray, ptr %45, i32 0, i32 0
  %47 = load ptr, ptr %46, align 8
  %48 = load i32, ptr %7, align 4
  %49 = zext i32 %48 to i64
  %50 = getelementptr %struct.wtap_option_t, ptr %47, i64 %49
  store ptr %50, ptr %8, align 8
  %51 = load ptr, ptr %8, align 8
  %52 = getelementptr inbounds nuw %struct.wtap_option_t, ptr %51, i32 0, i32 0
  %53 = load i32, ptr %52, align 8
  %54 = load i32, ptr %5, align 4
  %55 = icmp eq i32 %53, %54
  br i1 %55, label %56, label %64

56:                                               ; preds = %42
  %57 = load ptr, ptr %4, align 8
  %58 = load ptr, ptr %8, align 8
  call void @wtap_block_free_option(ptr noundef %57, ptr noundef %58)
  %59 = load ptr, ptr %4, align 8
  %60 = getelementptr inbounds nuw %struct.wtap_block, ptr %59, i32 0, i32 2
  %61 = load ptr, ptr %60, align 8
  %62 = load i32, ptr %7, align 4
  %63 = call ptr @g_array_remove_index(ptr noundef %61, i32 noundef %62)
  store i32 0, ptr %3, align 4
  store i32 1, ptr %9, align 4
  br label %69

64:                                               ; preds = %42
  br label %65

65:                                               ; preds = %64
  %66 = load i32, ptr %7, align 4
  %67 = add i32 %66, 1
  store i32 %67, ptr %7, align 4
  br label %34, !llvm.loop !17

68:                                               ; preds = %34
  store i32 -2, ptr %3, align 4
  store i32 1, ptr %9, align 4
  br label %69

69:                                               ; preds = %68, %56, %32, %25, %12
  call void @llvm.lifetime.end.p0(i64 8, ptr %8) #15
  call void @llvm.lifetime.end.p0(i64 4, ptr %7) #15
  call void @llvm.lifetime.end.p0(i64 8, ptr %6) #15
  %70 = load i32, ptr %3, align 4
  ret i32 %70
}