; Function Attrs: null_pointer_is_valid sspstrong uwtable
define range(i32 -6, 1) i32 @wtap_block_remove_option(ptr noundef readonly captures(address_is_null) %0, i32 noundef %1) local_unnamed_addr #0 {
  %3 = icmp eq ptr %0, null
  br i1 %3, label %.loopexit, label %4

4:                                                ; preds = %2
  %5 = load ptr, ptr %0, align 8
  %6 = getelementptr inbounds nuw i8, ptr %5, i64 48
  %7 = load ptr, ptr %6, align 8
  %8 = zext i32 %1 to i64
  %9 = inttoptr i64 %8 to ptr
  %10 = tail call ptr @g_hash_table_lookup(ptr noundef %7, ptr noundef %9)
  %11 = icmp eq ptr %10, null
  br i1 %11, label %.loopexit, label %12

12:                                               ; preds = %4
  %13 = getelementptr inbounds nuw i8, ptr %10, i64 20
  %14 = load i32, ptr %13, align 4
  %15 = and i32 %14, 1
  %.not = icmp eq i32 %15, 0
  br i1 %.not, label %.preheader, label %.loopexit

.preheader:                                       ; preds = %12
  %16 = getelementptr inbounds nuw i8, ptr %0, i64 16
  %17 = load ptr, ptr %16, align 8
  %18 = getelementptr inbounds nuw i8, ptr %17, i64 8
  %19 = load i32, ptr %18, align 8
  %.not23 = icmp eq i32 %19, 0
  br i1 %.not23, label %.loopexit, label %.lr.ph

.lr.ph:                                           ; preds = %.preheader
  %20 = load ptr, ptr %17, align 8
  %wide.trip.count = zext i32 %19 to i64
  br label %21

21:                                               ; preds = %.lr.ph, %30
  %indvars.iv = phi i64 [ 0, %.lr.ph ], [ %indvars.iv.next, %30 ]
  %22 = getelementptr %struct.wtap_option_t, ptr %20, i64 %indvars.iv
  %23 = load i32, ptr %22, align 8
  %24 = icmp eq i32 %23, %1
  br i1 %24, label %25, label %30

25:                                               ; preds = %21
  %26 = trunc nuw i64 %indvars.iv to i32
  %.val = load ptr, ptr %0, align 8
  %27 = getelementptr i8, ptr %.val, i64 48
  %.val.val = load ptr, ptr %27, align 8
  tail call fastcc void @wtap_block_free_option(ptr %.val.val, ptr noundef %22)
  %28 = load ptr, ptr %16, align 8
  %29 = tail call ptr @g_array_remove_index(ptr noundef %28, i32 noundef %26)
  br label %.loopexit

30:                                               ; preds = %21
  %indvars.iv.next = add nuw nsw i64 %indvars.iv, 1
  %exitcond.not = icmp eq i64 %indvars.iv.next, %wide.trip.count
  br i1 %exitcond.not, label %.loopexit, label %21, !llvm.loop !25

.loopexit:                                        ; preds = %30, %.preheader, %12, %4, %2, %25
  %.0 = phi i32 [ 0, %25 ], [ -6, %2 ], [ -1, %4 ], [ -4, %12 ], [ -2, %.preheader ], [ -2, %30 ]
  ret i32 %.0
}